; Function Attrs: mustprogress nounwind uwtable
define dso_local noundef ptr @_ZN4llvm15MachineFunction15allocateRegMaskEv(ptr noundef nonnull align 8 dereferenceable(1041) %0) local_unnamed_addr #0 align 2 {
  %2 = getelementptr inbounds nuw i8, ptr %0, i64 16
  %3 = load ptr, ptr %2, align 8
  %4 = load ptr, ptr %3, align 8
  %5 = getelementptr inbounds nuw i8, ptr %4, i64 200
  %6 = load ptr, ptr %5, align 8
  %7 = tail call noundef ptr %6(ptr noundef nonnull align 8 dereferenceable(288) %3) #25
  %8 = getelementptr inbounds nuw i8, ptr %7, i64 16
  %9 = load i32, ptr %8, align 8
  %10 = add i32 %9, 31
  %11 = getelementptr inbounds nuw i8, ptr %0, i64 128
  %12 = lshr i32 %10, 3
  %13 = and i32 %12, 536870908
  %14 = zext nneg i32 %13 to i64
  %15 = getelementptr inbounds nuw i8, ptr %0, i64 208
  %16 = load i64, ptr %15, align 8
  %17 = add i64 %16, %14
  store i64 %17, ptr %15, align 8
  %18 = load ptr, ptr %11, align 8
  %19 = ptrtoint ptr %18 to i64
  %20 = add i64 %19, 3
  %21 = and i64 %20, -4
  %22 = add i64 %21, %14
  %23 = getelementptr inbounds nuw i8, ptr %0, i64 136
  %24 = load ptr, ptr %23, align 8
  %25 = ptrtoint ptr %24 to i64
  %.not.i.i.i.i = icmp ugt i64 %22, %25
  %.not14.i.i.i.i = icmp eq ptr %18, null
  %or.cond.i.i.i.i = or i1 %.not14.i.i.i.i, %.not.i.i.i.i
  br i1 %or.cond.i.i.i.i, label %.critedge.i.i.i.i, label %26

26:                                               ; preds = %1
  %27 = inttoptr i64 %22 to ptr
  store ptr %27, ptr %11, align 8
  %28 = inttoptr i64 %21 to ptr
  br label %_ZN4llvm13AllocatorBaseINS_20BumpPtrAllocatorImplINS_15MallocAllocatorELm4096ELm4096ELm128EEEE8AllocateIjEEPT_m.exit

.critedge.i.i.i.i:                                ; preds = %1
  %29 = tail call noundef nonnull ptr @_ZN4llvm20BumpPtrAllocatorImplINS_15MallocAllocatorELm4096ELm4096ELm128EE12AllocateSlowEmmNS_5AlignE(ptr noundef nonnull align 8 dereferenceable(96) %11, i64 noundef %14, i64 noundef %14, i8 2)
  br label %_ZN4llvm13AllocatorBaseINS_20BumpPtrAllocatorImplINS_15MallocAllocatorELm4096ELm4096ELm128EEEE8AllocateIjEEPT_m.exit

_ZN4llvm13AllocatorBaseINS_20BumpPtrAllocatorImplINS_15MallocAllocatorELm4096ELm4096ELm128EEEE8AllocateIjEEPT_m.exit: ; preds = %26, %.critedge.i.i.i.i
  %.0.i.i.i.i = phi ptr [ %28, %26 ], [ %29, %.critedge.i.i.i.i ]
  tail call void @llvm.memset.p0.i64(ptr align 4 %.0.i.i.i.i, i8 0, i64 %14, i1 false)
  ret ptr %.0.i.i.i.i
}